Certificate:
    Data:
        Version: 3 (0x2)
        Serial Number:
            1d:91:86:86:1d:f3:66:e6:bf:27:0e:dd:fd:18:24:1c:26:a5:4b:48
        Signature Algorithm: sha256WithRSAEncryption
        Issuer: C=US, ST=California, L=Tustin, O=tlslookieloo, CN=tlslookieloo test certificate
        Validity
            Not Before: Dec  5 05:31:16 2019 GMT
            Not After : Dec  2 05:31:16 2029 GMT
        Subject: C=US, ST=California, O=homepluspower.info, OU=Research, CN=second target
        Subject Public Key Info:
            Public Key Algorithm: rsaEncryption
                RSA Public-Key: (2048 bit)
                Modulus:
                    00:c4:04:88:9f:22:f5:29:8f:e2:54:a7:3c:e4:0a:
                    c3:c9:f7:3d:0e:b2:44:12:c2:59:a4:92:48:45:57:
                    e3:c9:3d:d5:a1:38:9a:20:20:4e:6d:90:1a:29:eb:
                    24:9e:d5:6e:66:07:47:7c:81:db:2d:3d:76:0a:a5:
                    96:06:55:64:97:e9:0a:41:d3:01:ca:a3:19:3d:b9:
                    b0:c6:ad:b6:3e:0e:c9:bb:80:20:c6:90:06:7f:47:
                    f1:4f:a4:1e:21:48:16:32:b6:61:3f:4c:c0:41:34:
                    70:99:f4:7e:68:e4:80:f7:41:7a:56:24:ea:e0:60:
                    ba:e7:c1:91:a4:4d:8d:46:ec:01:38:e4:a4:0a:a6:
                    4e:60:18:9c:85:97:f5:29:0c:c3:76:3b:63:bd:7e:
                    b7:d8:6b:78:da:7a:24:33:22:86:c0:76:51:73:f2:
                    df:d0:19:ba:b4:7f:23:4b:d6:9d:a9:b5:85:13:24:
                    00:74:70:6f:d3:0f:c2:66:9d:7c:88:2a:84:4e:f5:
                    80:c7:df:f8:d1:49:b3:1e:0c:d3:4e:05:e4:ac:05:
                    16:fe:98:21:91:91:08:d2:01:82:ed:6d:cf:79:a9:
                    34:28:69:be:7b:83:a0:8e:91:b9:a1:39:30:e0:16:
                    53:96:03:7d:4a:e0:0c:ee:6c:81:9c:c0:f2:8c:a1:
                    4c:87
                Exponent: 65537 (0x10001)
        X509v3 extensions:
            X509v3 Basic Constraints: critical
                CA:FALSE
            X509v3 Subject Alternative Name: 
                DNS:localhost
    Signature Algorithm: sha256WithRSAEncryption
         6d:2b:e6:5c:c6:f3:3a:f5:b0:0a:75:8f:75:fb:5e:23:b8:b8:
         b4:0b:05:1d:7b:d9:ff:10:9c:03:00:f6:ec:50:ef:f6:c1:80:
         06:4c:5a:21:10:8f:6d:7d:9d:2b:19:67:b6:00:35:f8:ea:28:
         ce:3a:65:f3:1a:0c:d2:ff:ed:87:c1:bf:12:95:05:c7:71:a7:
         24:c8:e7:29:85:4f:5a:50:13:a9:30:8e:bb:8b:02:a3:18:a6:
         11:a8:b7:55:cd:49:da:6e:a5:c3:6f:bf:f0:00:84:6b:54:1a:
         2a:95:91:d8:f3:ba:9b:99:f8:b1:d2:7f:3a:e5:6e:22:7a:a6:
         53:f3:34:da:a0:9d:e1:aa:f2:2f:54:90:cf:8c:28:46:44:ba:
         0a:71:fd:0d:87:e8:a4:02:e5:34:67:3a:3a:d5:8d:dd:f1:0f:
         13:4b:55:f3:00:97:ba:24:d5:39:9e:83:18:a7:8e:0b:4f:a7:
         80:5e:31:5b:ad:29:e3:40:00:59:ae:97:15:9b:84:2a:46:43:
         af:bc:5b:3a:3f:90:b9:5a:14:46:53:f1:e9:77:4d:1f:aa:81:
         1b:a3:4a:28:23:32:76:29:af:66:a7:6e:d0:b3:ed:a7:68:c8:
         ae:b4:95:ee:75:29:a3:db:a8:73:6b:83:88:0b:84:80:94:6e:
         cf:9d:22:bd
-----BEGIN CERTIFICATE-----
MIIDkDCCAnigAwIBAgIUHZGGhh3zZua/Jw7d/RgkHCalS0gwDQYJKoZIhvcNAQEL
BQAwcjELMAkGA1UEBhMCVVMxEzARBgNVBAgMCkNhbGlmb3JuaWExDzANBgNVBAcM
BlR1c3RpbjEVMBMGA1UECgwMdGxzbG9va2llbG9vMSYwJAYDVQQDDB10bHNsb29r
aWVsb28gdGVzdCBjZXJ0aWZpY2F0ZTAeFw0xOTEyMDUwNTMxMTZaFw0yOTEyMDIw
NTMxMTZaMGoxCzAJBgNVBAYTAlVTMRMwEQYDVQQIDApDYWxpZm9ybmlhMRswGQYD
VQQKDBJob21lcGx1c3Bvd2VyLmluZm8xETAPBgNVBAsMCFJlc2VhcmNoMRYwFAYD
VQQDDA1zZWNvbmQgdGFyZ2V0MIIBIjANBgkqhkiG9w0BAQEFAAOCAQ8AMIIBCgKC
AQEAxASInyL1KY/iVKc85ArDyfc9DrJEEsJZpJJIRVfjyT3VoTiaICBObZAaKesk
ntVuZgdHfIHbLT12CqWWBlVkl+kKQdMByqMZPbmwxq22Pg7Ju4AgxpAGf0fxT6Qe
IUgWMrZhP0zAQTRwmfR+aOSA90F6ViTq4GC658GRpE2NRuwBOOSkCqZOYBichZf1
KQzDdjtjvX632Gt42nokMyKGwHZRc/Lf0Bm6tH8jS9adqbWFEyQAdHBv0w/CZp18
iCqETvWAx9/40UmzHgzTTgXkrAUW/pghkZEI0gGC7W3Peak0KGm+e4OgjpG5oTkw
4BZTlgN9SuAM7myBnMDyjKFMhwIDAQABoyYwJDAMBgNVHRMBAf8EAjAAMBQGA1Ud
EQQNMAuCCWxvY2FsaG9zdDANBgkqhkiG9w0BAQsFAAOCAQEAbSvmXMbzOvWwCnWP
dfteI7i4tAsFHXvZ/xCcAwD27FDv9sGABkxaIRCPbX2dKxlntgA1+Ooozjpl8xoM
0v/th8G/EpUFx3GnJMjnKYVPWlATqTCOu4sCoximEai3Vc1J2m6lw2+/8ACEa1Qa
KpWR2PO6m5n4sdJ/OuVuInqmU/M02qCd4aryL1SQz4woRkS6CnH9DYfopALlNGc6
OtWN3fEPE0tV8wCXuiTVOZ6DGKeOC0+ngF4xW60p40AAWa6XFZuEKkZDr7xbOj+Q
uVoURlPx6XdNH6qBG6NKKCMydimvZqdu0LPtp2jIrrSV7nUpo9uoc2uDiAuEgJRu
z50ivQ==
-----END CERTIFICATE-----
