Certificate:
    Data:
        Version: 3 (0x2)
        Serial Number:
            1d:91:86:86:1d:f3:66:e6:bf:27:0e:dd:fd:18:24:1c:26:a5:4b:47
        Signature Algorithm: sha256WithRSAEncryption
        Issuer: C=US, ST=California, L=Tustin, O=tlslookieloo, CN=tlslookieloo test certificate
        Validity
            Not Before: Oct 28 04:59:15 2019 GMT
            Not After : Oct 25 04:59:15 2029 GMT
        Subject: C=US, ST=California, O=homepluspower.info, OU=Research, CN=tlslookieloo client
        Subject Public Key Info:
            Public Key Algorithm: rsaEncryption
                RSA Public-Key: (2048 bit)
                Modulus:
                    00:a4:a5:b9:0c:98:a2:ca:71:68:28:40:7b:04:8e:
                    7e:ba:3b:6c:8d:16:c1:45:c0:47:01:5f:73:3a:39:
                    bc:f4:59:6b:38:d2:70:71:e6:07:12:56:30:80:f6:
                    c0:2d:79:22:f8:b4:8f:a4:a5:70:0e:b5:6f:5e:de:
                    37:b9:f9:1f:a6:96:88:3e:ee:48:64:e6:f5:3e:9f:
                    02:a2:80:75:26:c9:79:ae:c8:19:94:79:0d:4a:fd:
                    b8:d0:27:8c:c3:58:a2:ff:23:7b:f5:4d:7d:78:2a:
                    ce:2c:e2:c5:ae:ea:70:ef:1c:51:d7:51:6c:0d:c7:
                    74:75:1c:2b:28:be:cc:8f:b7:fd:26:c5:a5:e5:6b:
                    f7:b0:ab:6c:94:dd:9e:69:e1:40:c5:46:64:aa:bb:
                    9d:fe:1c:e0:9c:61:3a:dc:f4:c9:3a:ed:d6:14:da:
                    75:83:44:b9:bf:24:e4:2a:f8:38:ea:e9:1d:b3:35:
                    5e:bd:2b:7e:79:4c:9f:fd:25:94:63:8e:1c:9d:a1:
                    1a:e0:d9:3f:f9:18:2e:28:35:43:12:67:a6:b2:2b:
                    d3:3e:04:7b:b1:30:d6:25:bb:7c:46:e3:08:6c:77:
                    aa:78:56:d3:33:1d:0a:ae:71:20:fe:2e:5a:82:71:
                    ce:2a:1d:67:dc:2b:ba:e4:80:bc:ef:b3:e6:48:7e:
                    ec:bb
                Exponent: 65537 (0x10001)
        X509v3 extensions:
            X509v3 Basic Constraints: critical
                CA:FALSE
    Signature Algorithm: sha256WithRSAEncryption
         28:68:02:ba:01:66:98:39:c0:5e:59:96:c8:46:0a:92:57:92:
         14:96:f3:ae:f1:05:d3:40:26:1d:9b:cb:e1:ec:fd:48:06:6c:
         0c:a2:2c:98:28:94:b1:32:cb:d1:7f:8d:89:a4:d1:98:2d:7c:
         42:cf:dc:35:58:19:45:d3:00:1d:f0:39:3b:6c:d2:fd:fe:2c:
         9e:8b:11:86:88:7e:33:19:83:69:fb:f9:19:84:d5:87:f5:99:
         e2:3e:fc:54:a3:ce:db:26:0a:ff:62:2e:b7:63:bd:d7:ee:f2:
         09:92:5d:2e:a7:43:11:5b:cf:bc:1b:df:69:07:d6:91:60:fd:
         63:db:91:e4:ef:e1:9e:a7:b3:73:47:fc:cf:bf:a9:08:b5:f4:
         2e:e0:3f:b4:70:46:b7:cf:ff:57:30:b6:c9:94:e0:7c:70:ff:
         6d:a4:c0:75:82:36:ab:11:75:ca:a6:ea:ab:0c:eb:a5:aa:ef:
         09:50:de:e4:60:8e:e5:aa:49:07:fa:b9:dd:04:4d:7e:d5:c1:
         bc:63:e3:2e:53:a4:32:e2:77:dc:9e:71:06:03:a1:37:49:78:
         71:73:1d:a3:ae:74:a9:a1:78:96:89:89:72:bc:09:56:bf:85:
         53:76:55:90:cf:7a:c3:55:a5:0e:11:28:24:58:d4:67:fa:01:
         91:06:16:3f
-----BEGIN CERTIFICATE-----
MIIDgDCCAmigAwIBAgIUHZGGhh3zZua/Jw7d/RgkHCalS0cwDQYJKoZIhvcNAQEL
BQAwcjELMAkGA1UEBhMCVVMxEzARBgNVBAgMCkNhbGlmb3JuaWExDzANBgNVBAcM
BlR1c3RpbjEVMBMGA1UECgwMdGxzbG9va2llbG9vMSYwJAYDVQQDDB10bHNsb29r
aWVsb28gdGVzdCBjZXJ0aWZpY2F0ZTAeFw0xOTEwMjgwNDU5MTVaFw0yOTEwMjUw
NDU5MTVaMHAxCzAJBgNVBAYTAlVTMRMwEQYDVQQIDApDYWxpZm9ybmlhMRswGQYD
VQQKDBJob21lcGx1c3Bvd2VyLmluZm8xETAPBgNVBAsMCFJlc2VhcmNoMRwwGgYD
VQQDDBN0bHNsb29raWVsb28gY2xpZW50MIIBIjANBgkqhkiG9w0BAQEFAAOCAQ8A
MIIBCgKCAQEApKW5DJiiynFoKEB7BI5+ujtsjRbBRcBHAV9zOjm89FlrONJwceYH
ElYwgPbALXki+LSPpKVwDrVvXt43ufkfppaIPu5IZOb1Pp8CooB1Jsl5rsgZlHkN
Sv240CeMw1ii/yN79U19eCrOLOLFrupw7xxR11FsDcd0dRwrKL7Mj7f9JsWl5Wv3
sKtslN2eaeFAxUZkqrud/hzgnGE63PTJOu3WFNp1g0S5vyTkKvg46ukdszVevSt+
eUyf/SWUY44cnaEa4Nk/+RguKDVDEmemsivTPgR7sTDWJbt8RuMIbHeqeFbTMx0K
rnEg/i5agnHOKh1n3Cu65IC877PmSH7suwIDAQABoxAwDjAMBgNVHRMBAf8EAjAA
MA0GCSqGSIb3DQEBCwUAA4IBAQAoaAK6AWaYOcBeWZbIRgqSV5IUlvOu8QXTQCYd
m8vh7P1IBmwMoiyYKJSxMsvRf42JpNGYLXxCz9w1WBlF0wAd8Dk7bNL9/iyeixGG
iH4zGYNp+/kZhNWH9ZniPvxUo87bJgr/Yi63Y73X7vIJkl0up0MRW8+8G99pB9aR
YP1j25Hk7+Gep7NzR/zPv6kItfQu4D+0cEa3z/9XMLbJlOB8cP9tpMB1gjarEXXK
puqrDOulqu8JUN7kYI7lqkkH+rndBE1+1cG8Y+MuU6Qy4nfcnnEGA6E3SXhxcx2j
rnSpoXiWiYlyvAlWv4VTdlWQz3rDVaUOESgkWNRn+gGRBhY/
-----END CERTIFICATE-----
